ARM GAS  C:\Users\sr1\AppData\Local\Temp\ccPtJNUb.s 			page 1


   1              		.cpu cortex-m4
   2              		.arch armv7e-m
   3              		.fpu fpv4-sp-d16
   4              		.eabi_attribute 27, 1
   5              		.eabi_attribute 28, 1
   6              		.eabi_attribute 20, 1
   7              		.eabi_attribute 21, 1
   8              		.eabi_attribute 23, 3
   9              		.eabi_attribute 24, 1
  10              		.eabi_attribute 25, 1
  11              		.eabi_attribute 26, 1
  12              		.eabi_attribute 30, 1
  13              		.eabi_attribute 34, 1
  14              		.eabi_attribute 18, 4
  15              		.file	"adc.c"
  16              		.text
  17              	.Ltext0:
  18              		.cfi_sections	.debug_frame
  19              		.file 1 "Core/Src/adc.c"
  20              		.section	.text.MX_ADC2_Init,"ax",%progbits
  21              		.align	1
  22              		.global	MX_ADC2_Init
  23              		.syntax unified
  24              		.thumb
  25              		.thumb_func
  27              	MX_ADC2_Init:
  28              	.LFB329:
   1:Core/Src/adc.c **** /* USER CODE BEGIN Header */
   2:Core/Src/adc.c **** /**
   3:Core/Src/adc.c ****   ******************************************************************************
   4:Core/Src/adc.c ****   * @file    adc.c
   5:Core/Src/adc.c ****   * @brief   This file provides code for the configuration
   6:Core/Src/adc.c ****   *          of the ADC instances.
   7:Core/Src/adc.c ****   ******************************************************************************
   8:Core/Src/adc.c ****   * @attention
   9:Core/Src/adc.c ****   *
  10:Core/Src/adc.c ****   * Copyright (c) 2025 STMicroelectronics.
  11:Core/Src/adc.c ****   * All rights reserved.
  12:Core/Src/adc.c ****   *
  13:Core/Src/adc.c ****   * This software is licensed under terms that can be found in the LICENSE file
  14:Core/Src/adc.c ****   * in the root directory of this software component.
  15:Core/Src/adc.c ****   * If no LICENSE file comes with this software, it is provided AS-IS.
  16:Core/Src/adc.c ****   *
  17:Core/Src/adc.c ****   ******************************************************************************
  18:Core/Src/adc.c ****   */
  19:Core/Src/adc.c **** /* USER CODE END Header */
  20:Core/Src/adc.c **** /* Includes ------------------------------------------------------------------*/
  21:Core/Src/adc.c **** #include "adc.h"
  22:Core/Src/adc.c **** 
  23:Core/Src/adc.c **** /* USER CODE BEGIN 0 */
  24:Core/Src/adc.c **** 
  25:Core/Src/adc.c **** /* USER CODE END 0 */
  26:Core/Src/adc.c **** 
  27:Core/Src/adc.c **** ADC_HandleTypeDef hadc2;
  28:Core/Src/adc.c **** 
  29:Core/Src/adc.c **** /* ADC2 init function */
  30:Core/Src/adc.c **** void MX_ADC2_Init(void)
ARM GAS  C:\Users\sr1\AppData\Local\Temp\ccPtJNUb.s 			page 2


  31:Core/Src/adc.c **** {
  29              		.loc 1 31 1 view -0
  30              		.cfi_startproc
  31              		@ args = 0, pretend = 0, frame = 64
  32              		@ frame_needed = 0, uses_anonymous_args = 0
  33 0000 00B5     		push	{lr}
  34              	.LCFI0:
  35              		.cfi_def_cfa_offset 4
  36              		.cfi_offset 14, -4
  37 0002 91B0     		sub	sp, sp, #68
  38              	.LCFI1:
  39              		.cfi_def_cfa_offset 72
  32:Core/Src/adc.c **** 
  33:Core/Src/adc.c ****   /* USER CODE BEGIN ADC2_Init 0 */
  34:Core/Src/adc.c **** 
  35:Core/Src/adc.c ****   /* USER CODE END ADC2_Init 0 */
  36:Core/Src/adc.c **** 
  37:Core/Src/adc.c ****   ADC_InjectionConfTypeDef sConfigInjected = {0};
  40              		.loc 1 37 3 view .LVU1
  41              		.loc 1 37 28 is_stmt 0 view .LVU2
  42 0004 3C22     		movs	r2, #60
  43 0006 0021     		movs	r1, #0
  44 0008 01A8     		add	r0, sp, #4
  45 000a FFF7FEFF 		bl	memset
  46              	.LVL0:
  38:Core/Src/adc.c **** 
  39:Core/Src/adc.c ****   /* USER CODE BEGIN ADC2_Init 1 */
  40:Core/Src/adc.c **** 
  41:Core/Src/adc.c ****   /* USER CODE END ADC2_Init 1 */
  42:Core/Src/adc.c **** 
  43:Core/Src/adc.c ****   /** Common config
  44:Core/Src/adc.c ****   */
  45:Core/Src/adc.c ****   hadc2.Instance = ADC2;
  47              		.loc 1 45 3 is_stmt 1 view .LVU3
  48              		.loc 1 45 18 is_stmt 0 view .LVU4
  49 000e 2A48     		ldr	r0, .L9
  50 0010 2A4B     		ldr	r3, .L9+4
  51 0012 0360     		str	r3, [r0]
  46:Core/Src/adc.c ****   hadc2.Init.ClockPrescaler = ADC_CLOCK_SYNC_PCLK_DIV4;
  52              		.loc 1 46 3 is_stmt 1 view .LVU5
  53              		.loc 1 46 29 is_stmt 0 view .LVU6
  54 0014 4FF44033 		mov	r3, #196608
  55 0018 4360     		str	r3, [r0, #4]
  47:Core/Src/adc.c ****   hadc2.Init.Resolution = ADC_RESOLUTION_12B;
  56              		.loc 1 47 3 is_stmt 1 view .LVU7
  57              		.loc 1 47 25 is_stmt 0 view .LVU8
  58 001a 0023     		movs	r3, #0
  59 001c 8360     		str	r3, [r0, #8]
  48:Core/Src/adc.c ****   hadc2.Init.DataAlign = ADC_DATAALIGN_RIGHT;
  60              		.loc 1 48 3 is_stmt 1 view .LVU9
  61              		.loc 1 48 24 is_stmt 0 view .LVU10
  62 001e C360     		str	r3, [r0, #12]
  49:Core/Src/adc.c ****   hadc2.Init.GainCompensation = 0;
  63              		.loc 1 49 3 is_stmt 1 view .LVU11
  64              		.loc 1 49 31 is_stmt 0 view .LVU12
  65 0020 0361     		str	r3, [r0, #16]
  50:Core/Src/adc.c ****   hadc2.Init.ScanConvMode = ADC_SCAN_ENABLE;
ARM GAS  C:\Users\sr1\AppData\Local\Temp\ccPtJNUb.s 			page 3


  66              		.loc 1 50 3 is_stmt 1 view .LVU13
  67              		.loc 1 50 27 is_stmt 0 view .LVU14
  68 0022 0122     		movs	r2, #1
  69 0024 4261     		str	r2, [r0, #20]
  51:Core/Src/adc.c ****   hadc2.Init.EOCSelection = ADC_EOC_SINGLE_CONV;
  70              		.loc 1 51 3 is_stmt 1 view .LVU15
  71              		.loc 1 51 27 is_stmt 0 view .LVU16
  72 0026 0421     		movs	r1, #4
  73 0028 8161     		str	r1, [r0, #24]
  52:Core/Src/adc.c ****   hadc2.Init.LowPowerAutoWait = DISABLE;
  74              		.loc 1 52 3 is_stmt 1 view .LVU17
  75              		.loc 1 52 31 is_stmt 0 view .LVU18
  76 002a 0377     		strb	r3, [r0, #28]
  53:Core/Src/adc.c ****   hadc2.Init.ContinuousConvMode = DISABLE;
  77              		.loc 1 53 3 is_stmt 1 view .LVU19
  78              		.loc 1 53 33 is_stmt 0 view .LVU20
  79 002c 4377     		strb	r3, [r0, #29]
  54:Core/Src/adc.c ****   hadc2.Init.NbrOfConversion = 1;
  80              		.loc 1 54 3 is_stmt 1 view .LVU21
  81              		.loc 1 54 30 is_stmt 0 view .LVU22
  82 002e 0262     		str	r2, [r0, #32]
  55:Core/Src/adc.c ****   hadc2.Init.DiscontinuousConvMode = DISABLE;
  83              		.loc 1 55 3 is_stmt 1 view .LVU23
  84              		.loc 1 55 36 is_stmt 0 view .LVU24
  85 0030 80F82430 		strb	r3, [r0, #36]
  56:Core/Src/adc.c ****   hadc2.Init.DMAContinuousRequests = DISABLE;
  86              		.loc 1 56 3 is_stmt 1 view .LVU25
  87              		.loc 1 56 36 is_stmt 0 view .LVU26
  88 0034 80F83830 		strb	r3, [r0, #56]
  57:Core/Src/adc.c ****   hadc2.Init.Overrun = ADC_OVR_DATA_PRESERVED;
  89              		.loc 1 57 3 is_stmt 1 view .LVU27
  90              		.loc 1 57 22 is_stmt 0 view .LVU28
  91 0038 C363     		str	r3, [r0, #60]
  58:Core/Src/adc.c ****   hadc2.Init.OversamplingMode = DISABLE;
  92              		.loc 1 58 3 is_stmt 1 view .LVU29
  93              		.loc 1 58 31 is_stmt 0 view .LVU30
  94 003a 80F84030 		strb	r3, [r0, #64]
  59:Core/Src/adc.c ****   if (HAL_ADC_Init(&hadc2) != HAL_OK)
  95              		.loc 1 59 3 is_stmt 1 view .LVU31
  96              		.loc 1 59 7 is_stmt 0 view .LVU32
  97 003e FFF7FEFF 		bl	HAL_ADC_Init
  98              	.LVL1:
  99              		.loc 1 59 6 view .LVU33
 100 0042 0028     		cmp	r0, #0
 101 0044 2ED1     		bne	.L6
 102              	.L2:
  60:Core/Src/adc.c ****   {
  61:Core/Src/adc.c ****     Error_Handler();
  62:Core/Src/adc.c ****   }
  63:Core/Src/adc.c **** 
  64:Core/Src/adc.c ****   /** Configure Injected Channel
  65:Core/Src/adc.c ****   */
  66:Core/Src/adc.c ****   sConfigInjected.InjectedChannel = ADC_CHANNEL_1;
 103              		.loc 1 66 3 is_stmt 1 view .LVU34
 104              		.loc 1 66 35 is_stmt 0 view .LVU35
 105 0046 1E4B     		ldr	r3, .L9+8
 106 0048 0193     		str	r3, [sp, #4]
ARM GAS  C:\Users\sr1\AppData\Local\Temp\ccPtJNUb.s 			page 4


  67:Core/Src/adc.c ****   sConfigInjected.InjectedRank = ADC_INJECTED_RANK_1;
 107              		.loc 1 67 3 is_stmt 1 view .LVU36
 108              		.loc 1 67 32 is_stmt 0 view .LVU37
 109 004a 0923     		movs	r3, #9
 110 004c 0293     		str	r3, [sp, #8]
  68:Core/Src/adc.c ****   sConfigInjected.InjectedSamplingTime = ADC_SAMPLETIME_2CYCLES_5;
 111              		.loc 1 68 3 is_stmt 1 view .LVU38
 112              		.loc 1 68 40 is_stmt 0 view .LVU39
 113 004e 0023     		movs	r3, #0
 114 0050 0393     		str	r3, [sp, #12]
  69:Core/Src/adc.c ****   sConfigInjected.InjectedSingleDiff = ADC_SINGLE_ENDED;
 115              		.loc 1 69 3 is_stmt 1 view .LVU40
 116              		.loc 1 69 38 is_stmt 0 view .LVU41
 117 0052 7F22     		movs	r2, #127
 118 0054 0492     		str	r2, [sp, #16]
  70:Core/Src/adc.c ****   sConfigInjected.InjectedOffsetNumber = ADC_OFFSET_NONE;
 119              		.loc 1 70 3 is_stmt 1 view .LVU42
 120              		.loc 1 70 40 is_stmt 0 view .LVU43
 121 0056 0422     		movs	r2, #4
 122 0058 0592     		str	r2, [sp, #20]
  71:Core/Src/adc.c ****   sConfigInjected.InjectedOffset = 0;
 123              		.loc 1 71 3 is_stmt 1 view .LVU44
 124              		.loc 1 71 34 is_stmt 0 view .LVU45
 125 005a 0693     		str	r3, [sp, #24]
  72:Core/Src/adc.c ****   sConfigInjected.InjectedNbrOfConversion = 2;
 126              		.loc 1 72 3 is_stmt 1 view .LVU46
 127              		.loc 1 72 43 is_stmt 0 view .LVU47
 128 005c 0222     		movs	r2, #2
 129 005e 0992     		str	r2, [sp, #36]
  73:Core/Src/adc.c ****   sConfigInjected.InjectedDiscontinuousConvMode = DISABLE;
 130              		.loc 1 73 3 is_stmt 1 view .LVU48
 131              		.loc 1 73 49 is_stmt 0 view .LVU49
 132 0060 8DF82830 		strb	r3, [sp, #40]
  74:Core/Src/adc.c ****   sConfigInjected.AutoInjectedConv = DISABLE;
 133              		.loc 1 74 3 is_stmt 1 view .LVU50
 134              		.loc 1 74 36 is_stmt 0 view .LVU51
 135 0064 8DF82930 		strb	r3, [sp, #41]
  75:Core/Src/adc.c ****   sConfigInjected.QueueInjectedContext = DISABLE;
 136              		.loc 1 75 3 is_stmt 1 view .LVU52
 137              		.loc 1 75 40 is_stmt 0 view .LVU53
 138 0068 8DF82A30 		strb	r3, [sp, #42]
  76:Core/Src/adc.c ****   sConfigInjected.ExternalTrigInjecConv = ADC_EXTERNALTRIGINJEC_T6_TRGO;
 139              		.loc 1 76 3 is_stmt 1 view .LVU54
 140              		.loc 1 76 41 is_stmt 0 view .LVU55
 141 006c B822     		movs	r2, #184
 142 006e 0B92     		str	r2, [sp, #44]
  77:Core/Src/adc.c ****   sConfigInjected.ExternalTrigInjecConvEdge = ADC_EXTERNALTRIGINJECCONV_EDGE_RISING;
 143              		.loc 1 77 3 is_stmt 1 view .LVU56
 144              		.loc 1 77 45 is_stmt 0 view .LVU57
 145 0070 8022     		movs	r2, #128
 146 0072 0C92     		str	r2, [sp, #48]
  78:Core/Src/adc.c ****   sConfigInjected.InjecOversamplingMode = ENABLE;
 147              		.loc 1 78 3 is_stmt 1 view .LVU58
 148              		.loc 1 78 41 is_stmt 0 view .LVU59
 149 0074 0122     		movs	r2, #1
 150 0076 8DF83420 		strb	r2, [sp, #52]
  79:Core/Src/adc.c ****   sConfigInjected.InjecOversampling.Ratio = ADC_OVERSAMPLING_RATIO_16;
ARM GAS  C:\Users\sr1\AppData\Local\Temp\ccPtJNUb.s 			page 5


 151              		.loc 1 79 3 is_stmt 1 view .LVU60
 152              		.loc 1 79 43 is_stmt 0 view .LVU61
 153 007a 0C22     		movs	r2, #12
 154 007c 0E92     		str	r2, [sp, #56]
  80:Core/Src/adc.c ****   sConfigInjected.InjecOversampling.RightBitShift = ADC_RIGHTBITSHIFT_NONE;
 155              		.loc 1 80 3 is_stmt 1 view .LVU62
 156              		.loc 1 80 51 is_stmt 0 view .LVU63
 157 007e 0F93     		str	r3, [sp, #60]
  81:Core/Src/adc.c ****   if (HAL_ADCEx_InjectedConfigChannel(&hadc2, &sConfigInjected) != HAL_OK)
 158              		.loc 1 81 3 is_stmt 1 view .LVU64
 159              		.loc 1 81 7 is_stmt 0 view .LVU65
 160 0080 01A9     		add	r1, sp, #4
 161 0082 0D48     		ldr	r0, .L9
 162 0084 FFF7FEFF 		bl	HAL_ADCEx_InjectedConfigChannel
 163              	.LVL2:
 164              		.loc 1 81 6 view .LVU66
 165 0088 78B9     		cbnz	r0, .L7
 166              	.L3:
  82:Core/Src/adc.c ****   {
  83:Core/Src/adc.c ****     Error_Handler();
  84:Core/Src/adc.c ****   }
  85:Core/Src/adc.c **** 
  86:Core/Src/adc.c ****   /** Configure Injected Channel
  87:Core/Src/adc.c ****   */
  88:Core/Src/adc.c ****   sConfigInjected.InjectedChannel = ADC_CHANNEL_11;
 167              		.loc 1 88 3 is_stmt 1 view .LVU67
 168              		.loc 1 88 35 is_stmt 0 view .LVU68
 169 008a 0E4B     		ldr	r3, .L9+12
 170 008c 0193     		str	r3, [sp, #4]
  89:Core/Src/adc.c ****   sConfigInjected.InjectedRank = ADC_INJECTED_RANK_2;
 171              		.loc 1 89 3 is_stmt 1 view .LVU69
 172              		.loc 1 89 32 is_stmt 0 view .LVU70
 173 008e 40F20F13 		movw	r3, #271
 174 0092 0293     		str	r3, [sp, #8]
  90:Core/Src/adc.c ****   if (HAL_ADCEx_InjectedConfigChannel(&hadc2, &sConfigInjected) != HAL_OK)
 175              		.loc 1 90 3 is_stmt 1 view .LVU71
 176              		.loc 1 90 7 is_stmt 0 view .LVU72
 177 0094 01A9     		add	r1, sp, #4
 178 0096 0848     		ldr	r0, .L9
 179 0098 FFF7FEFF 		bl	HAL_ADCEx_InjectedConfigChannel
 180              	.LVL3:
 181              		.loc 1 90 6 view .LVU73
 182 009c 40B9     		cbnz	r0, .L8
 183              	.L1:
  91:Core/Src/adc.c ****   {
  92:Core/Src/adc.c ****     Error_Handler();
  93:Core/Src/adc.c ****   }
  94:Core/Src/adc.c ****   /* USER CODE BEGIN ADC2_Init 2 */
  95:Core/Src/adc.c **** 
  96:Core/Src/adc.c ****   /* USER CODE END ADC2_Init 2 */
  97:Core/Src/adc.c **** 
  98:Core/Src/adc.c **** }
 184              		.loc 1 98 1 view .LVU74
 185 009e 11B0     		add	sp, sp, #68
 186              	.LCFI2:
 187              		.cfi_remember_state
 188              		.cfi_def_cfa_offset 4
ARM GAS  C:\Users\sr1\AppData\Local\Temp\ccPtJNUb.s 			page 6


 189              		@ sp needed
 190 00a0 5DF804FB 		ldr	pc, [sp], #4
 191              	.L6:
 192              	.LCFI3:
 193              		.cfi_restore_state
  61:Core/Src/adc.c ****   }
 194              		.loc 1 61 5 is_stmt 1 view .LVU75
 195 00a4 FFF7FEFF 		bl	Error_Handler
 196              	.LVL4:
 197 00a8 CDE7     		b	.L2
 198              	.L7:
  83:Core/Src/adc.c ****   }
 199              		.loc 1 83 5 view .LVU76
 200 00aa FFF7FEFF 		bl	Error_Handler
 201              	.LVL5:
 202 00ae ECE7     		b	.L3
 203              	.L8:
  92:Core/Src/adc.c ****   }
 204              		.loc 1 92 5 view .LVU77
 205 00b0 FFF7FEFF 		bl	Error_Handler
 206              	.LVL6:
 207              		.loc 1 98 1 is_stmt 0 view .LVU78
 208 00b4 F3E7     		b	.L1
 209              	.L10:
 210 00b6 00BF     		.align	2
 211              	.L9:
 212 00b8 00000000 		.word	hadc2
 213 00bc 00010050 		.word	1342177536
 214 00c0 02003004 		.word	70254594
 215 00c4 0008302E 		.word	774899712
 216              		.cfi_endproc
 217              	.LFE329:
 219              		.section	.text.HAL_ADC_MspInit,"ax",%progbits
 220              		.align	1
 221              		.global	HAL_ADC_MspInit
 222              		.syntax unified
 223              		.thumb
 224              		.thumb_func
 226              	HAL_ADC_MspInit:
 227              	.LVL7:
 228              	.LFB330:
  99:Core/Src/adc.c **** 
 100:Core/Src/adc.c **** void HAL_ADC_MspInit(ADC_HandleTypeDef* adcHandle)
 101:Core/Src/adc.c **** {
 229              		.loc 1 101 1 is_stmt 1 view -0
 230              		.cfi_startproc
 231              		@ args = 0, pretend = 0, frame = 120
 232              		@ frame_needed = 0, uses_anonymous_args = 0
 233              		.loc 1 101 1 is_stmt 0 view .LVU80
 234 0000 30B5     		push	{r4, r5, lr}
 235              	.LCFI4:
 236              		.cfi_def_cfa_offset 12
 237              		.cfi_offset 4, -12
 238              		.cfi_offset 5, -8
 239              		.cfi_offset 14, -4
 240 0002 9FB0     		sub	sp, sp, #124
 241              	.LCFI5:
ARM GAS  C:\Users\sr1\AppData\Local\Temp\ccPtJNUb.s 			page 7


 242              		.cfi_def_cfa_offset 136
 243 0004 0446     		mov	r4, r0
 102:Core/Src/adc.c **** 
 103:Core/Src/adc.c ****   GPIO_InitTypeDef GPIO_InitStruct = {0};
 244              		.loc 1 103 3 is_stmt 1 view .LVU81
 245              		.loc 1 103 20 is_stmt 0 view .LVU82
 246 0006 0021     		movs	r1, #0
 247 0008 1991     		str	r1, [sp, #100]
 248 000a 1A91     		str	r1, [sp, #104]
 249 000c 1B91     		str	r1, [sp, #108]
 250 000e 1C91     		str	r1, [sp, #112]
 251 0010 1D91     		str	r1, [sp, #116]
 104:Core/Src/adc.c ****   RCC_PeriphCLKInitTypeDef PeriphClkInit = {0};
 252              		.loc 1 104 3 is_stmt 1 view .LVU83
 253              		.loc 1 104 28 is_stmt 0 view .LVU84
 254 0012 5422     		movs	r2, #84
 255 0014 04A8     		add	r0, sp, #16
 256              	.LVL8:
 257              		.loc 1 104 28 view .LVU85
 258 0016 FFF7FEFF 		bl	memset
 259              	.LVL9:
 105:Core/Src/adc.c ****   if(adcHandle->Instance==ADC2)
 260              		.loc 1 105 3 is_stmt 1 view .LVU86
 261              		.loc 1 105 15 is_stmt 0 view .LVU87
 262 001a 2268     		ldr	r2, [r4]
 263              		.loc 1 105 5 view .LVU88
 264 001c 254B     		ldr	r3, .L17
 265 001e 9A42     		cmp	r2, r3
 266 0020 01D0     		beq	.L15
 267              	.LVL10:
 268              	.L11:
 106:Core/Src/adc.c ****   {
 107:Core/Src/adc.c ****   /* USER CODE BEGIN ADC2_MspInit 0 */
 108:Core/Src/adc.c **** 
 109:Core/Src/adc.c ****   /* USER CODE END ADC2_MspInit 0 */
 110:Core/Src/adc.c **** 
 111:Core/Src/adc.c ****   /** Initializes the peripherals clocks
 112:Core/Src/adc.c ****   */
 113:Core/Src/adc.c ****     PeriphClkInit.PeriphClockSelection = RCC_PERIPHCLK_ADC12;
 114:Core/Src/adc.c ****     PeriphClkInit.Adc12ClockSelection = RCC_ADC12CLKSOURCE_SYSCLK;
 115:Core/Src/adc.c ****     if (HAL_RCCEx_PeriphCLKConfig(&PeriphClkInit) != HAL_OK)
 116:Core/Src/adc.c ****     {
 117:Core/Src/adc.c ****       Error_Handler();
 118:Core/Src/adc.c ****     }
 119:Core/Src/adc.c **** 
 120:Core/Src/adc.c ****     /* ADC2 clock enable */
 121:Core/Src/adc.c ****     __HAL_RCC_ADC12_CLK_ENABLE();
 122:Core/Src/adc.c **** 
 123:Core/Src/adc.c ****     __HAL_RCC_GPIOA_CLK_ENABLE();
 124:Core/Src/adc.c ****     __HAL_RCC_GPIOC_CLK_ENABLE();
 125:Core/Src/adc.c ****     /**ADC2 GPIO Configuration
 126:Core/Src/adc.c ****     PA0     ------> ADC2_IN1
 127:Core/Src/adc.c ****     PC5     ------> ADC2_IN11
 128:Core/Src/adc.c ****     */
 129:Core/Src/adc.c ****     GPIO_InitStruct.Pin = AI_T_Pin;
 130:Core/Src/adc.c ****     GPIO_InitStruct.Mode = GPIO_MODE_ANALOG;
 131:Core/Src/adc.c ****     GPIO_InitStruct.Pull = GPIO_NOPULL;
ARM GAS  C:\Users\sr1\AppData\Local\Temp\ccPtJNUb.s 			page 8


 132:Core/Src/adc.c ****     HAL_GPIO_Init(AI_T_GPIO_Port, &GPIO_InitStruct);
 133:Core/Src/adc.c **** 
 134:Core/Src/adc.c ****     GPIO_InitStruct.Pin = AI_R_Pin;
 135:Core/Src/adc.c ****     GPIO_InitStruct.Mode = GPIO_MODE_ANALOG;
 136:Core/Src/adc.c ****     GPIO_InitStruct.Pull = GPIO_NOPULL;
 137:Core/Src/adc.c ****     HAL_GPIO_Init(AI_R_GPIO_Port, &GPIO_InitStruct);
 138:Core/Src/adc.c **** 
 139:Core/Src/adc.c ****     /* ADC2 interrupt Init */
 140:Core/Src/adc.c ****     HAL_NVIC_SetPriority(ADC1_2_IRQn, 0, 0);
 141:Core/Src/adc.c ****     HAL_NVIC_EnableIRQ(ADC1_2_IRQn);
 142:Core/Src/adc.c ****   /* USER CODE BEGIN ADC2_MspInit 1 */
 143:Core/Src/adc.c **** 
 144:Core/Src/adc.c ****   /* USER CODE END ADC2_MspInit 1 */
 145:Core/Src/adc.c ****   }
 146:Core/Src/adc.c **** }
 269              		.loc 1 146 1 view .LVU89
 270 0022 1FB0     		add	sp, sp, #124
 271              	.LCFI6:
 272              		.cfi_remember_state
 273              		.cfi_def_cfa_offset 12
 274              		@ sp needed
 275 0024 30BD     		pop	{r4, r5, pc}
 276              	.LVL11:
 277              	.L15:
 278              	.LCFI7:
 279              		.cfi_restore_state
 113:Core/Src/adc.c ****     PeriphClkInit.Adc12ClockSelection = RCC_ADC12CLKSOURCE_SYSCLK;
 280              		.loc 1 113 5 is_stmt 1 view .LVU90
 113:Core/Src/adc.c ****     PeriphClkInit.Adc12ClockSelection = RCC_ADC12CLKSOURCE_SYSCLK;
 281              		.loc 1 113 40 is_stmt 0 view .LVU91
 282 0026 4FF40043 		mov	r3, #32768
 283 002a 0493     		str	r3, [sp, #16]
 114:Core/Src/adc.c ****     if (HAL_RCCEx_PeriphCLKConfig(&PeriphClkInit) != HAL_OK)
 284              		.loc 1 114 5 is_stmt 1 view .LVU92
 114:Core/Src/adc.c ****     if (HAL_RCCEx_PeriphCLKConfig(&PeriphClkInit) != HAL_OK)
 285              		.loc 1 114 39 is_stmt 0 view .LVU93
 286 002c 4FF00053 		mov	r3, #536870912
 287 0030 1593     		str	r3, [sp, #84]
 115:Core/Src/adc.c ****     {
 288              		.loc 1 115 5 is_stmt 1 view .LVU94
 115:Core/Src/adc.c ****     {
 289              		.loc 1 115 9 is_stmt 0 view .LVU95
 290 0032 04A8     		add	r0, sp, #16
 291 0034 FFF7FEFF 		bl	HAL_RCCEx_PeriphCLKConfig
 292              	.LVL12:
 115:Core/Src/adc.c ****     {
 293              		.loc 1 115 8 view .LVU96
 294 0038 0028     		cmp	r0, #0
 295 003a 37D1     		bne	.L16
 296              	.L13:
 121:Core/Src/adc.c **** 
 297              		.loc 1 121 5 is_stmt 1 view .LVU97
 298              	.LBB2:
 121:Core/Src/adc.c **** 
 299              		.loc 1 121 5 view .LVU98
 121:Core/Src/adc.c **** 
 300              		.loc 1 121 5 view .LVU99
ARM GAS  C:\Users\sr1\AppData\Local\Temp\ccPtJNUb.s 			page 9


 301 003c 1E4B     		ldr	r3, .L17+4
 302 003e DA6C     		ldr	r2, [r3, #76]
 303 0040 42F40052 		orr	r2, r2, #8192
 304 0044 DA64     		str	r2, [r3, #76]
 121:Core/Src/adc.c **** 
 305              		.loc 1 121 5 view .LVU100
 306 0046 DA6C     		ldr	r2, [r3, #76]
 307 0048 02F40052 		and	r2, r2, #8192
 308 004c 0192     		str	r2, [sp, #4]
 121:Core/Src/adc.c **** 
 309              		.loc 1 121 5 view .LVU101
 310 004e 019A     		ldr	r2, [sp, #4]
 311              	.LBE2:
 121:Core/Src/adc.c **** 
 312              		.loc 1 121 5 view .LVU102
 123:Core/Src/adc.c ****     __HAL_RCC_GPIOC_CLK_ENABLE();
 313              		.loc 1 123 5 view .LVU103
 314              	.LBB3:
 123:Core/Src/adc.c ****     __HAL_RCC_GPIOC_CLK_ENABLE();
 315              		.loc 1 123 5 view .LVU104
 123:Core/Src/adc.c ****     __HAL_RCC_GPIOC_CLK_ENABLE();
 316              		.loc 1 123 5 view .LVU105
 317 0050 DA6C     		ldr	r2, [r3, #76]
 318 0052 42F00102 		orr	r2, r2, #1
 319 0056 DA64     		str	r2, [r3, #76]
 123:Core/Src/adc.c ****     __HAL_RCC_GPIOC_CLK_ENABLE();
 320              		.loc 1 123 5 view .LVU106
 321 0058 DA6C     		ldr	r2, [r3, #76]
 322 005a 02F00102 		and	r2, r2, #1
 323 005e 0292     		str	r2, [sp, #8]
 123:Core/Src/adc.c ****     __HAL_RCC_GPIOC_CLK_ENABLE();
 324              		.loc 1 123 5 view .LVU107
 325 0060 029A     		ldr	r2, [sp, #8]
 326              	.LBE3:
 123:Core/Src/adc.c ****     __HAL_RCC_GPIOC_CLK_ENABLE();
 327              		.loc 1 123 5 view .LVU108
 124:Core/Src/adc.c ****     /**ADC2 GPIO Configuration
 328              		.loc 1 124 5 view .LVU109
 329              	.LBB4:
 124:Core/Src/adc.c ****     /**ADC2 GPIO Configuration
 330              		.loc 1 124 5 view .LVU110
 124:Core/Src/adc.c ****     /**ADC2 GPIO Configuration
 331              		.loc 1 124 5 view .LVU111
 332 0062 DA6C     		ldr	r2, [r3, #76]
 333 0064 42F00402 		orr	r2, r2, #4
 334 0068 DA64     		str	r2, [r3, #76]
 124:Core/Src/adc.c ****     /**ADC2 GPIO Configuration
 335              		.loc 1 124 5 view .LVU112
 336 006a DB6C     		ldr	r3, [r3, #76]
 337 006c 03F00403 		and	r3, r3, #4
 338 0070 0393     		str	r3, [sp, #12]
 124:Core/Src/adc.c ****     /**ADC2 GPIO Configuration
 339              		.loc 1 124 5 view .LVU113
 340 0072 039B     		ldr	r3, [sp, #12]
 341              	.LBE4:
 124:Core/Src/adc.c ****     /**ADC2 GPIO Configuration
 342              		.loc 1 124 5 view .LVU114
ARM GAS  C:\Users\sr1\AppData\Local\Temp\ccPtJNUb.s 			page 10


 129:Core/Src/adc.c ****     GPIO_InitStruct.Mode = GPIO_MODE_ANALOG;
 343              		.loc 1 129 5 view .LVU115
 129:Core/Src/adc.c ****     GPIO_InitStruct.Mode = GPIO_MODE_ANALOG;
 344              		.loc 1 129 25 is_stmt 0 view .LVU116
 345 0074 0123     		movs	r3, #1
 346 0076 1993     		str	r3, [sp, #100]
 130:Core/Src/adc.c ****     GPIO_InitStruct.Pull = GPIO_NOPULL;
 347              		.loc 1 130 5 is_stmt 1 view .LVU117
 130:Core/Src/adc.c ****     GPIO_InitStruct.Pull = GPIO_NOPULL;
 348              		.loc 1 130 26 is_stmt 0 view .LVU118
 349 0078 0325     		movs	r5, #3
 350 007a 1A95     		str	r5, [sp, #104]
 131:Core/Src/adc.c ****     HAL_GPIO_Init(AI_T_GPIO_Port, &GPIO_InitStruct);
 351              		.loc 1 131 5 is_stmt 1 view .LVU119
 131:Core/Src/adc.c ****     HAL_GPIO_Init(AI_T_GPIO_Port, &GPIO_InitStruct);
 352              		.loc 1 131 26 is_stmt 0 view .LVU120
 353 007c 0024     		movs	r4, #0
 354              	.LVL13:
 131:Core/Src/adc.c ****     HAL_GPIO_Init(AI_T_GPIO_Port, &GPIO_InitStruct);
 355              		.loc 1 131 26 view .LVU121
 356 007e 1B94     		str	r4, [sp, #108]
 132:Core/Src/adc.c **** 
 357              		.loc 1 132 5 is_stmt 1 view .LVU122
 358 0080 19A9     		add	r1, sp, #100
 359 0082 4FF09040 		mov	r0, #1207959552
 360 0086 FFF7FEFF 		bl	HAL_GPIO_Init
 361              	.LVL14:
 134:Core/Src/adc.c ****     GPIO_InitStruct.Mode = GPIO_MODE_ANALOG;
 362              		.loc 1 134 5 view .LVU123
 134:Core/Src/adc.c ****     GPIO_InitStruct.Mode = GPIO_MODE_ANALOG;
 363              		.loc 1 134 25 is_stmt 0 view .LVU124
 364 008a 2023     		movs	r3, #32
 365 008c 1993     		str	r3, [sp, #100]
 135:Core/Src/adc.c ****     GPIO_InitStruct.Pull = GPIO_NOPULL;
 366              		.loc 1 135 5 is_stmt 1 view .LVU125
 135:Core/Src/adc.c ****     GPIO_InitStruct.Pull = GPIO_NOPULL;
 367              		.loc 1 135 26 is_stmt 0 view .LVU126
 368 008e 1A95     		str	r5, [sp, #104]
 136:Core/Src/adc.c ****     HAL_GPIO_Init(AI_R_GPIO_Port, &GPIO_InitStruct);
 369              		.loc 1 136 5 is_stmt 1 view .LVU127
 136:Core/Src/adc.c ****     HAL_GPIO_Init(AI_R_GPIO_Port, &GPIO_InitStruct);
 370              		.loc 1 136 26 is_stmt 0 view .LVU128
 371 0090 1B94     		str	r4, [sp, #108]
 137:Core/Src/adc.c **** 
 372              		.loc 1 137 5 is_stmt 1 view .LVU129
 373 0092 19A9     		add	r1, sp, #100
 374 0094 0948     		ldr	r0, .L17+8
 375 0096 FFF7FEFF 		bl	HAL_GPIO_Init
 376              	.LVL15:
 140:Core/Src/adc.c ****     HAL_NVIC_EnableIRQ(ADC1_2_IRQn);
 377              		.loc 1 140 5 view .LVU130
 378 009a 2246     		mov	r2, r4
 379 009c 2146     		mov	r1, r4
 380 009e 1220     		movs	r0, #18
 381 00a0 FFF7FEFF 		bl	HAL_NVIC_SetPriority
 382              	.LVL16:
 141:Core/Src/adc.c ****   /* USER CODE BEGIN ADC2_MspInit 1 */
ARM GAS  C:\Users\sr1\AppData\Local\Temp\ccPtJNUb.s 			page 11


 383              		.loc 1 141 5 view .LVU131
 384 00a4 1220     		movs	r0, #18
 385 00a6 FFF7FEFF 		bl	HAL_NVIC_EnableIRQ
 386              	.LVL17:
 387              		.loc 1 146 1 is_stmt 0 view .LVU132
 388 00aa BAE7     		b	.L11
 389              	.LVL18:
 390              	.L16:
 117:Core/Src/adc.c ****     }
 391              		.loc 1 117 7 is_stmt 1 view .LVU133
 392 00ac FFF7FEFF 		bl	Error_Handler
 393              	.LVL19:
 394 00b0 C4E7     		b	.L13
 395              	.L18:
 396 00b2 00BF     		.align	2
 397              	.L17:
 398 00b4 00010050 		.word	1342177536
 399 00b8 00100240 		.word	1073876992
 400 00bc 00080048 		.word	1207961600
 401              		.cfi_endproc
 402              	.LFE330:
 404              		.section	.text.HAL_ADC_MspDeInit,"ax",%progbits
 405              		.align	1
 406              		.global	HAL_ADC_MspDeInit
 407              		.syntax unified
 408              		.thumb
 409              		.thumb_func
 411              	HAL_ADC_MspDeInit:
 412              	.LVL20:
 413              	.LFB331:
 147:Core/Src/adc.c **** 
 148:Core/Src/adc.c **** void HAL_ADC_MspDeInit(ADC_HandleTypeDef* adcHandle)
 149:Core/Src/adc.c **** {
 414              		.loc 1 149 1 view -0
 415              		.cfi_startproc
 416              		@ args = 0, pretend = 0, frame = 0
 417              		@ frame_needed = 0, uses_anonymous_args = 0
 418              		.loc 1 149 1 is_stmt 0 view .LVU135
 419 0000 08B5     		push	{r3, lr}
 420              	.LCFI8:
 421              		.cfi_def_cfa_offset 8
 422              		.cfi_offset 3, -8
 423              		.cfi_offset 14, -4
 150:Core/Src/adc.c **** 
 151:Core/Src/adc.c ****   if(adcHandle->Instance==ADC2)
 424              		.loc 1 151 3 is_stmt 1 view .LVU136
 425              		.loc 1 151 15 is_stmt 0 view .LVU137
 426 0002 0268     		ldr	r2, [r0]
 427              		.loc 1 151 5 view .LVU138
 428 0004 0A4B     		ldr	r3, .L23
 429 0006 9A42     		cmp	r2, r3
 430 0008 00D0     		beq	.L22
 431              	.LVL21:
 432              	.L19:
 152:Core/Src/adc.c ****   {
 153:Core/Src/adc.c ****   /* USER CODE BEGIN ADC2_MspDeInit 0 */
 154:Core/Src/adc.c **** 
ARM GAS  C:\Users\sr1\AppData\Local\Temp\ccPtJNUb.s 			page 12


 155:Core/Src/adc.c ****   /* USER CODE END ADC2_MspDeInit 0 */
 156:Core/Src/adc.c ****     /* Peripheral clock disable */
 157:Core/Src/adc.c ****     __HAL_RCC_ADC12_CLK_DISABLE();
 158:Core/Src/adc.c **** 
 159:Core/Src/adc.c ****     /**ADC2 GPIO Configuration
 160:Core/Src/adc.c ****     PA0     ------> ADC2_IN1
 161:Core/Src/adc.c ****     PC5     ------> ADC2_IN11
 162:Core/Src/adc.c ****     */
 163:Core/Src/adc.c ****     HAL_GPIO_DeInit(AI_T_GPIO_Port, AI_T_Pin);
 164:Core/Src/adc.c **** 
 165:Core/Src/adc.c ****     HAL_GPIO_DeInit(AI_R_GPIO_Port, AI_R_Pin);
 166:Core/Src/adc.c **** 
 167:Core/Src/adc.c ****     /* ADC2 interrupt Deinit */
 168:Core/Src/adc.c ****     HAL_NVIC_DisableIRQ(ADC1_2_IRQn);
 169:Core/Src/adc.c ****   /* USER CODE BEGIN ADC2_MspDeInit 1 */
 170:Core/Src/adc.c **** 
 171:Core/Src/adc.c ****   /* USER CODE END ADC2_MspDeInit 1 */
 172:Core/Src/adc.c ****   }
 173:Core/Src/adc.c **** }
 433              		.loc 1 173 1 view .LVU139
 434 000a 08BD     		pop	{r3, pc}
 435              	.LVL22:
 436              	.L22:
 157:Core/Src/adc.c **** 
 437              		.loc 1 157 5 is_stmt 1 view .LVU140
 438 000c 094A     		ldr	r2, .L23+4
 439 000e D36C     		ldr	r3, [r2, #76]
 440 0010 23F40053 		bic	r3, r3, #8192
 441 0014 D364     		str	r3, [r2, #76]
 163:Core/Src/adc.c **** 
 442              		.loc 1 163 5 view .LVU141
 443 0016 0121     		movs	r1, #1
 444 0018 4FF09040 		mov	r0, #1207959552
 445              	.LVL23:
 163:Core/Src/adc.c **** 
 446              		.loc 1 163 5 is_stmt 0 view .LVU142
 447 001c FFF7FEFF 		bl	HAL_GPIO_DeInit
 448              	.LVL24:
 165:Core/Src/adc.c **** 
 449              		.loc 1 165 5 is_stmt 1 view .LVU143
 450 0020 2021     		movs	r1, #32
 451 0022 0548     		ldr	r0, .L23+8
 452 0024 FFF7FEFF 		bl	HAL_GPIO_DeInit
 453              	.LVL25:
 168:Core/Src/adc.c ****   /* USER CODE BEGIN ADC2_MspDeInit 1 */
 454              		.loc 1 168 5 view .LVU144
 455 0028 1220     		movs	r0, #18
 456 002a FFF7FEFF 		bl	HAL_NVIC_DisableIRQ
 457              	.LVL26:
 458              		.loc 1 173 1 is_stmt 0 view .LVU145
 459 002e ECE7     		b	.L19
 460              	.L24:
 461              		.align	2
 462              	.L23:
 463 0030 00010050 		.word	1342177536
 464 0034 00100240 		.word	1073876992
 465 0038 00080048 		.word	1207961600
ARM GAS  C:\Users\sr1\AppData\Local\Temp\ccPtJNUb.s 			page 13


 466              		.cfi_endproc
 467              	.LFE331:
 469              		.global	hadc2
 470              		.section	.bss.hadc2,"aw",%nobits
 471              		.align	2
 474              	hadc2:
 475 0000 00000000 		.space	108
 475      00000000 
 475      00000000 
 475      00000000 
 475      00000000 
 476              		.text
 477              	.Letext0:
 478              		.file 2 "Drivers/CMSIS/Device/ST/STM32G4xx/Include/stm32g474xx.h"
 479              		.file 3 "c:\\program files\\vscodestmtools\\arm-none-eabi-gcc\\12.2.1-1.2.1\\.content\\arm-none-ea
 480              		.file 4 "c:\\program files\\vscodestmtools\\arm-none-eabi-gcc\\12.2.1-1.2.1\\.content\\arm-none-ea
 481              		.file 5 "Drivers/CMSIS/Device/ST/STM32G4xx/Include/stm32g4xx.h"
 482              		.file 6 "Drivers/STM32G4xx_HAL_Driver/Inc/stm32g4xx_hal_def.h"
 483              		.file 7 "Drivers/STM32G4xx_HAL_Driver/Inc/stm32g4xx_hal_rcc_ex.h"
 484              		.file 8 "Drivers/STM32G4xx_HAL_Driver/Inc/stm32g4xx_hal_gpio.h"
 485              		.file 9 "Drivers/STM32G4xx_HAL_Driver/Inc/stm32g4xx_hal_dma.h"
 486              		.file 10 "Drivers/STM32G4xx_HAL_Driver/Inc/stm32g4xx_hal_adc.h"
 487              		.file 11 "Drivers/STM32G4xx_HAL_Driver/Inc/stm32g4xx_hal_adc_ex.h"
 488              		.file 12 "Drivers/STM32G4xx_HAL_Driver/Inc/stm32g4xx_hal_cortex.h"
 489              		.file 13 "Core/Inc/adc.h"
 490              		.file 14 "Core/Inc/main.h"
 491              		.file 15 "<built-in>"
ARM GAS  C:\Users\sr1\AppData\Local\Temp\ccPtJNUb.s 			page 14

