ARM GAS  C:\Users\sr1\AppData\Local\Temp\ccoo2xJ0.s 			page 1


   1              		.cpu cortex-m4
   2              		.arch armv7e-m
   3              		.fpu fpv4-sp-d16
   4              		.eabi_attribute 27, 1
   5              		.eabi_attribute 28, 1
   6              		.eabi_attribute 20, 1
   7              		.eabi_attribute 21, 1
   8              		.eabi_attribute 23, 3
   9              		.eabi_attribute 24, 1
  10              		.eabi_attribute 25, 1
  11              		.eabi_attribute 26, 1
  12              		.eabi_attribute 30, 1
  13              		.eabi_attribute 34, 1
  14              		.eabi_attribute 18, 4
  15              		.file	"ProtocolMbRtuSlaveCtrl.c"
  16              		.text
  17              	.Ltext0:
  18              		.cfi_sections	.debug_frame
  19              		.file 1 "App/ProtocolMbRtuSlaveCtrl.c"
  20              		.section	.text.protocolMbRtuSlaveCtrl_callback_H_WRITE,"ax",%progbits
  21              		.align	1
  22              		.weak	protocolMbRtuSlaveCtrl_callback_H_WRITE
  23              		.syntax unified
  24              		.thumb
  25              		.thumb_func
  27              	protocolMbRtuSlaveCtrl_callback_H_WRITE:
  28              	.LVL0:
  29              	.LFB331:
   1:App/ProtocolMbRtuSlaveCtrl.c **** 
   2:App/ProtocolMbRtuSlaveCtrl.c **** #include "ProtocolMbRtuSlaveCtrl.h"
   3:App/ProtocolMbRtuSlaveCtrl.c **** 
   4:App/ProtocolMbRtuSlaveCtrl.c **** #include "App.h"
   5:App/ProtocolMbRtuSlaveCtrl.c **** #include "BSP.h"
   6:App/ProtocolMbRtuSlaveCtrl.c **** 
   7:App/ProtocolMbRtuSlaveCtrl.c **** uint8_t modbusBufRxTxRtu485[MODBUS_SS_BUF_CNT];
   8:App/ProtocolMbRtuSlaveCtrl.c **** 
   9:App/ProtocolMbRtuSlaveCtrl.c **** //--------------------  PROTOCOL ---------------------//
  10:App/ProtocolMbRtuSlaveCtrl.c **** //---1000
  11:App/ProtocolMbRtuSlaveCtrl.c **** #define MDB_TABLE_BSP_REG_NO (1000)
  12:App/ProtocolMbRtuSlaveCtrl.c **** enum mdb_table_bsp
  13:App/ProtocolMbRtuSlaveCtrl.c **** {
  14:App/ProtocolMbRtuSlaveCtrl.c ****   tab_bsp_state_led_rele = MDB_TABLE_BSP_REG_NO,
  15:App/ProtocolMbRtuSlaveCtrl.c ****   tab_bsp_control_led_rele,
  16:App/ProtocolMbRtuSlaveCtrl.c ****   tab_bsp_spi_buf_0,
  17:App/ProtocolMbRtuSlaveCtrl.c ****   tab_bsp_spi_buf_1,
  18:App/ProtocolMbRtuSlaveCtrl.c ****   tab_bsp_spi_buf_2,
  19:App/ProtocolMbRtuSlaveCtrl.c ****   tab_bsp_ADC_CPU_data,
  20:App/ProtocolMbRtuSlaveCtrl.c ****   tab_bsp_ADC_T_data,
  21:App/ProtocolMbRtuSlaveCtrl.c ****   tab_bsp_ADC_ADS1251_data_u16,
  22:App/ProtocolMbRtuSlaveCtrl.c ****   tab_bsp_ADC_ADS1251_data_u32_1,
  23:App/ProtocolMbRtuSlaveCtrl.c ****   tab_bsp_ADC_ADS1251_data_u32_2
  24:App/ProtocolMbRtuSlaveCtrl.c **** };
  25:App/ProtocolMbRtuSlaveCtrl.c **** #define MDB_BSP_BUF_COUNT (tab_bsp_ADC_ADS1251_data_u32_2 - MDB_TABLE_BSP_REG_NO + 1)
  26:App/ProtocolMbRtuSlaveCtrl.c **** uint16_t mdb_bsp_buf[MDB_BSP_BUF_COUNT];
  27:App/ProtocolMbRtuSlaveCtrl.c **** 
  28:App/ProtocolMbRtuSlaveCtrl.c **** ModbusSS_table_t mdb_table_bsp = {
  29:App/ProtocolMbRtuSlaveCtrl.c ****     .buf = (uint8_t *)mdb_bsp_buf,
ARM GAS  C:\Users\sr1\AppData\Local\Temp\ccoo2xJ0.s 			page 2


  30:App/ProtocolMbRtuSlaveCtrl.c ****     .quantity = MDB_BSP_BUF_COUNT,
  31:App/ProtocolMbRtuSlaveCtrl.c ****     .regNo = MDB_TABLE_BSP_REG_NO,
  32:App/ProtocolMbRtuSlaveCtrl.c ****     .type = ModbusSS_Holding};
  33:App/ProtocolMbRtuSlaveCtrl.c **** 
  34:App/ProtocolMbRtuSlaveCtrl.c **** //--------------------  PROTOCOL END---------------------//
  35:App/ProtocolMbRtuSlaveCtrl.c **** 
  36:App/ProtocolMbRtuSlaveCtrl.c **** //--------------------  TABLES ARRAY ---------------------//
  37:App/ProtocolMbRtuSlaveCtrl.c **** ModbusSS_table_t *modbusTables[] = {
  38:App/ProtocolMbRtuSlaveCtrl.c ****     &mdb_table_bsp
  39:App/ProtocolMbRtuSlaveCtrl.c **** };
  40:App/ProtocolMbRtuSlaveCtrl.c **** //--------------------  TABLES ARRAY END---------------------//
  41:App/ProtocolMbRtuSlaveCtrl.c **** 
  42:App/ProtocolMbRtuSlaveCtrl.c **** //--------------------  MODBUS STRUCT ---------------------//
  43:App/ProtocolMbRtuSlaveCtrl.c **** ModbusSS_t modbusSS_rtu_rs485 = {
  44:App/ProtocolMbRtuSlaveCtrl.c ****     .cbHoldingUpdate = protocolMbRtuSlaveCtrl_callback_H_WRITE,
  45:App/ProtocolMbRtuSlaveCtrl.c ****     .cbHoldingRequest = NULL, // protocolMbRtuSlaveCtrl_callback_H_REQ, //modbusHoldingReq,
  46:App/ProtocolMbRtuSlaveCtrl.c ****     .rtuTcp = MODBUS_SS_RTU,
  47:App/ProtocolMbRtuSlaveCtrl.c ****     .bufRxTx = modbusBufRxTxRtu485,
  48:App/ProtocolMbRtuSlaveCtrl.c ****     .slaveId = 1,
  49:App/ProtocolMbRtuSlaveCtrl.c ****     .tables = modbusTables,
  50:App/ProtocolMbRtuSlaveCtrl.c ****     .tablesCount = 1
  51:App/ProtocolMbRtuSlaveCtrl.c **** };
  52:App/ProtocolMbRtuSlaveCtrl.c **** //--------------------  MODBUS STRUCT END---------------------//
  53:App/ProtocolMbRtuSlaveCtrl.c **** 
  54:App/ProtocolMbRtuSlaveCtrl.c **** //------------------------ EXTERN ------------------------
  55:App/ProtocolMbRtuSlaveCtrl.c **** extern App_struct App;
  56:App/ProtocolMbRtuSlaveCtrl.c **** //---------------------- EXTERN END-----------------------
  57:App/ProtocolMbRtuSlaveCtrl.c **** 
  58:App/ProtocolMbRtuSlaveCtrl.c **** //------------------------ REGULAR FCN ------------------------
  59:App/ProtocolMbRtuSlaveCtrl.c **** void protocolMbRtuSlaveCtrl_init(uint8_t portNo)
  60:App/ProtocolMbRtuSlaveCtrl.c **** {
  61:App/ProtocolMbRtuSlaveCtrl.c ****   HAL_Delay(100);
  62:App/ProtocolMbRtuSlaveCtrl.c ****   bsp_rs485_setPortToModbusRtu(portNo, modbusBufRxTxRtu485, MODBUS_SS_BUF_CNT);
  63:App/ProtocolMbRtuSlaveCtrl.c **** }
  64:App/ProtocolMbRtuSlaveCtrl.c **** 
  65:App/ProtocolMbRtuSlaveCtrl.c **** __INLINE void protocolMbRtuSlaveCtrl_update_tables()
  66:App/ProtocolMbRtuSlaveCtrl.c **** {
  67:App/ProtocolMbRtuSlaveCtrl.c ****   ModbusSS_SetWord(&mdb_table_bsp, tab_bsp_state_led_rele,           App.Mdb_data_AO.state_led_rele
  68:App/ProtocolMbRtuSlaveCtrl.c ****   ModbusSS_SetWord(&mdb_table_bsp, tab_bsp_control_led_rele,         App.Mdb_data_AO.control_led_re
  69:App/ProtocolMbRtuSlaveCtrl.c ****   ModbusSS_SetWord(&mdb_table_bsp, tab_bsp_spi_buf_0,                App.Mdb_data_AO.spi_buf_0[0]);
  70:App/ProtocolMbRtuSlaveCtrl.c ****   ModbusSS_SetWord(&mdb_table_bsp, tab_bsp_spi_buf_1,                App.Mdb_data_AO.spi_buf_0[1]);
  71:App/ProtocolMbRtuSlaveCtrl.c ****   ModbusSS_SetWord(&mdb_table_bsp, tab_bsp_spi_buf_2,                App.Mdb_data_AO.spi_buf_0[2]);
  72:App/ProtocolMbRtuSlaveCtrl.c **** 
  73:App/ProtocolMbRtuSlaveCtrl.c ****   ModbusSS_SetWord(&mdb_table_bsp, tab_bsp_ADC_CPU_data,             App.Mdb_data_AO.ADC_CPU_data);
  74:App/ProtocolMbRtuSlaveCtrl.c ****   ModbusSS_SetWord(&mdb_table_bsp, tab_bsp_ADC_T_data,               App.Mdb_data_AO.ADC_T_data);
  75:App/ProtocolMbRtuSlaveCtrl.c **** 
  76:App/ProtocolMbRtuSlaveCtrl.c ****   ModbusSS_SetWord(&mdb_table_bsp, tab_bsp_ADC_ADS1251_data_u16,     App.Mdb_data_AO.ADC_ADS1251_da
  77:App/ProtocolMbRtuSlaveCtrl.c **** 
  78:App/ProtocolMbRtuSlaveCtrl.c ****   ModbusSS_SetWord(&mdb_table_bsp, tab_bsp_ADC_ADS1251_data_u32_1,   (uint16_t)(App.Mdb_data_AO.ADC
  79:App/ProtocolMbRtuSlaveCtrl.c ****   ModbusSS_SetWord(&mdb_table_bsp, tab_bsp_ADC_ADS1251_data_u32_2,   (uint16_t)(App.Mdb_data_AO.ADC
  80:App/ProtocolMbRtuSlaveCtrl.c **** }
  81:App/ProtocolMbRtuSlaveCtrl.c **** //------------------------ REGULAR FCN END------------------------
  82:App/ProtocolMbRtuSlaveCtrl.c **** 
  83:App/ProtocolMbRtuSlaveCtrl.c **** //------------------------------- MODBUS CALLBACKS -------------------------------------------//
  84:App/ProtocolMbRtuSlaveCtrl.c **** __weak void protocolMbRtuSlaveCtrl_callback_H_WRITE(ModbusSS_table_t *table, uint16_t reg, uint16_t
  85:App/ProtocolMbRtuSlaveCtrl.c **** {
  30              		.loc 1 85 1 view -0
ARM GAS  C:\Users\sr1\AppData\Local\Temp\ccoo2xJ0.s 			page 3


  31              		.cfi_startproc
  32              		@ args = 0, pretend = 0, frame = 0
  33              		@ frame_needed = 0, uses_anonymous_args = 0
  86:App/ProtocolMbRtuSlaveCtrl.c **** 
  87:App/ProtocolMbRtuSlaveCtrl.c ****   uint16_t value = 0.0f;
  34              		.loc 1 87 3 view .LVU1
  88:App/ProtocolMbRtuSlaveCtrl.c ****   asm("NOP");
  35              		.loc 1 88 3 view .LVU2
  36              		.syntax unified
  37              	@ 88 "App/ProtocolMbRtuSlaveCtrl.c" 1
  38 0000 00BF     		NOP
  39              	@ 0 "" 2
  89:App/ProtocolMbRtuSlaveCtrl.c **** 
  90:App/ProtocolMbRtuSlaveCtrl.c ****   if (table == &mdb_table_bsp) // Диапазон BSP
  40              		.loc 1 90 3 view .LVU3
  41              		.loc 1 90 6 is_stmt 0 view .LVU4
  42              		.thumb
  43              		.syntax unified
  44 0002 094B     		ldr	r3, .L9
  45 0004 9842     		cmp	r0, r3
  46 0006 00D0     		beq	.L7
  47 0008 7047     		bx	lr
  48              	.L7:
  85:App/ProtocolMbRtuSlaveCtrl.c **** 
  49              		.loc 1 85 1 view .LVU5
  50 000a 10B5     		push	{r4, lr}
  51              	.LCFI0:
  52              		.cfi_def_cfa_offset 8
  53              		.cfi_offset 4, -8
  54              		.cfi_offset 14, -4
  55 000c 0C46     		mov	r4, r1
  91:App/ProtocolMbRtuSlaveCtrl.c ****   {
  92:App/ProtocolMbRtuSlaveCtrl.c ****     value = ModbusSS_GetWord(&mdb_table_bsp, reg);
  56              		.loc 1 92 5 is_stmt 1 view .LVU6
  57              		.loc 1 92 13 is_stmt 0 view .LVU7
  58 000e 1846     		mov	r0, r3
  59              	.LVL1:
  60              		.loc 1 92 13 view .LVU8
  61 0010 FFF7FEFF 		bl	ModbusSS_GetWord
  62              	.LVL2:
  93:App/ProtocolMbRtuSlaveCtrl.c ****     switch (reg)
  63              		.loc 1 93 5 is_stmt 1 view .LVU9
  64 0014 40F2E933 		movw	r3, #1001
  65 0018 9C42     		cmp	r4, r3
  66 001a 00D0     		beq	.L8
  67              	.LVL3:
  68              	.L1:
  94:App/ProtocolMbRtuSlaveCtrl.c ****     {
  95:App/ProtocolMbRtuSlaveCtrl.c ****     case tab_bsp_control_led_rele:
  96:App/ProtocolMbRtuSlaveCtrl.c ****       App.Mdb_data_AO.control_led_rele = value;
  97:App/ProtocolMbRtuSlaveCtrl.c ****       app_control_led_rele(value);
  98:App/ProtocolMbRtuSlaveCtrl.c ****       break;
  99:App/ProtocolMbRtuSlaveCtrl.c ****     default:
 100:App/ProtocolMbRtuSlaveCtrl.c ****       break;
 101:App/ProtocolMbRtuSlaveCtrl.c ****     }
 102:App/ProtocolMbRtuSlaveCtrl.c ****   }
 103:App/ProtocolMbRtuSlaveCtrl.c ****   
ARM GAS  C:\Users\sr1\AppData\Local\Temp\ccoo2xJ0.s 			page 4


 104:App/ProtocolMbRtuSlaveCtrl.c **** }
  69              		.loc 1 104 1 is_stmt 0 view .LVU10
  70 001c 10BD     		pop	{r4, pc}
  71              	.LVL4:
  72              	.L8:
  96:App/ProtocolMbRtuSlaveCtrl.c ****       app_control_led_rele(value);
  73              		.loc 1 96 7 is_stmt 1 view .LVU11
  96:App/ProtocolMbRtuSlaveCtrl.c ****       app_control_led_rele(value);
  74              		.loc 1 96 40 is_stmt 0 view .LVU12
  75 001e 034B     		ldr	r3, .L9+4
  76 0020 5880     		strh	r0, [r3, #2]	@ movhi
  97:App/ProtocolMbRtuSlaveCtrl.c ****       break;
  77              		.loc 1 97 7 is_stmt 1 view .LVU13
  78 0022 FFF7FEFF 		bl	app_control_led_rele
  79              	.LVL5:
  98:App/ProtocolMbRtuSlaveCtrl.c ****     default:
  80              		.loc 1 98 7 view .LVU14
  81              		.loc 1 104 1 is_stmt 0 view .LVU15
  82 0026 F9E7     		b	.L1
  83              	.L10:
  84              		.align	2
  85              	.L9:
  86 0028 00000000 		.word	mdb_table_bsp
  87 002c 00000000 		.word	App
  88              		.cfi_endproc
  89              	.LFE331:
  91              		.section	.text.protocolMbRtuSlaveCtrl_init,"ax",%progbits
  92              		.align	1
  93              		.global	protocolMbRtuSlaveCtrl_init
  94              		.syntax unified
  95              		.thumb
  96              		.thumb_func
  98              	protocolMbRtuSlaveCtrl_init:
  99              	.LVL6:
 100              	.LFB329:
  60:App/ProtocolMbRtuSlaveCtrl.c ****   HAL_Delay(100);
 101              		.loc 1 60 1 is_stmt 1 view -0
 102              		.cfi_startproc
 103              		@ args = 0, pretend = 0, frame = 0
 104              		@ frame_needed = 0, uses_anonymous_args = 0
  60:App/ProtocolMbRtuSlaveCtrl.c ****   HAL_Delay(100);
 105              		.loc 1 60 1 is_stmt 0 view .LVU17
 106 0000 10B5     		push	{r4, lr}
 107              	.LCFI1:
 108              		.cfi_def_cfa_offset 8
 109              		.cfi_offset 4, -8
 110              		.cfi_offset 14, -4
 111 0002 0446     		mov	r4, r0
  61:App/ProtocolMbRtuSlaveCtrl.c ****   bsp_rs485_setPortToModbusRtu(portNo, modbusBufRxTxRtu485, MODBUS_SS_BUF_CNT);
 112              		.loc 1 61 3 is_stmt 1 view .LVU18
 113 0004 6420     		movs	r0, #100
 114              	.LVL7:
  61:App/ProtocolMbRtuSlaveCtrl.c ****   bsp_rs485_setPortToModbusRtu(portNo, modbusBufRxTxRtu485, MODBUS_SS_BUF_CNT);
 115              		.loc 1 61 3 is_stmt 0 view .LVU19
 116 0006 FFF7FEFF 		bl	HAL_Delay
 117              	.LVL8:
  62:App/ProtocolMbRtuSlaveCtrl.c **** }
ARM GAS  C:\Users\sr1\AppData\Local\Temp\ccoo2xJ0.s 			page 5


 118              		.loc 1 62 3 is_stmt 1 view .LVU20
 119 000a 4FF48272 		mov	r2, #260
 120 000e 0249     		ldr	r1, .L13
 121 0010 2046     		mov	r0, r4
 122 0012 FFF7FEFF 		bl	bsp_rs485_setPortToModbusRtu
 123              	.LVL9:
  63:App/ProtocolMbRtuSlaveCtrl.c **** 
 124              		.loc 1 63 1 is_stmt 0 view .LVU21
 125 0016 10BD     		pop	{r4, pc}
 126              	.L14:
 127              		.align	2
 128              	.L13:
 129 0018 00000000 		.word	modbusBufRxTxRtu485
 130              		.cfi_endproc
 131              	.LFE329:
 133              		.section	.text.protocolMbRtuSlaveCtrl_update_tables,"ax",%progbits
 134              		.align	1
 135              		.global	protocolMbRtuSlaveCtrl_update_tables
 136              		.syntax unified
 137              		.thumb
 138              		.thumb_func
 140              	protocolMbRtuSlaveCtrl_update_tables:
 141              	.LFB330:
  66:App/ProtocolMbRtuSlaveCtrl.c ****   ModbusSS_SetWord(&mdb_table_bsp, tab_bsp_state_led_rele,           App.Mdb_data_AO.state_led_rele
 142              		.loc 1 66 1 is_stmt 1 view -0
 143              		.cfi_startproc
 144              		@ args = 0, pretend = 0, frame = 0
 145              		@ frame_needed = 0, uses_anonymous_args = 0
 146 0000 38B5     		push	{r3, r4, r5, lr}
 147              	.LCFI2:
 148              		.cfi_def_cfa_offset 16
 149              		.cfi_offset 3, -16
 150              		.cfi_offset 4, -12
 151              		.cfi_offset 5, -8
 152              		.cfi_offset 14, -4
  67:App/ProtocolMbRtuSlaveCtrl.c ****   ModbusSS_SetWord(&mdb_table_bsp, tab_bsp_control_led_rele,         App.Mdb_data_AO.control_led_re
 153              		.loc 1 67 3 view .LVU23
 154 0002 1F4D     		ldr	r5, .L17
 155 0004 1F4C     		ldr	r4, .L17+4
 156 0006 2A88     		ldrh	r2, [r5]
 157 0008 4FF47A71 		mov	r1, #1000
 158 000c 2046     		mov	r0, r4
 159 000e FFF7FEFF 		bl	ModbusSS_SetWord
 160              	.LVL10:
  68:App/ProtocolMbRtuSlaveCtrl.c ****   ModbusSS_SetWord(&mdb_table_bsp, tab_bsp_spi_buf_0,                App.Mdb_data_AO.spi_buf_0[0]);
 161              		.loc 1 68 3 view .LVU24
 162 0012 6A88     		ldrh	r2, [r5, #2]
 163 0014 40F2E931 		movw	r1, #1001
 164 0018 2046     		mov	r0, r4
 165 001a FFF7FEFF 		bl	ModbusSS_SetWord
 166              	.LVL11:
  69:App/ProtocolMbRtuSlaveCtrl.c ****   ModbusSS_SetWord(&mdb_table_bsp, tab_bsp_spi_buf_1,                App.Mdb_data_AO.spi_buf_0[1]);
 167              		.loc 1 69 3 view .LVU25
 168 001e AA88     		ldrh	r2, [r5, #4]
 169 0020 40F2EA31 		movw	r1, #1002
 170 0024 2046     		mov	r0, r4
 171 0026 FFF7FEFF 		bl	ModbusSS_SetWord
ARM GAS  C:\Users\sr1\AppData\Local\Temp\ccoo2xJ0.s 			page 6


 172              	.LVL12:
  70:App/ProtocolMbRtuSlaveCtrl.c ****   ModbusSS_SetWord(&mdb_table_bsp, tab_bsp_spi_buf_2,                App.Mdb_data_AO.spi_buf_0[2]);
 173              		.loc 1 70 3 view .LVU26
 174 002a EA88     		ldrh	r2, [r5, #6]
 175 002c 40F2EB31 		movw	r1, #1003
 176 0030 2046     		mov	r0, r4
 177 0032 FFF7FEFF 		bl	ModbusSS_SetWord
 178              	.LVL13:
  71:App/ProtocolMbRtuSlaveCtrl.c **** 
 179              		.loc 1 71 3 view .LVU27
 180 0036 2A89     		ldrh	r2, [r5, #8]
 181 0038 4FF47B71 		mov	r1, #1004
 182 003c 2046     		mov	r0, r4
 183 003e FFF7FEFF 		bl	ModbusSS_SetWord
 184              	.LVL14:
  73:App/ProtocolMbRtuSlaveCtrl.c ****   ModbusSS_SetWord(&mdb_table_bsp, tab_bsp_ADC_T_data,               App.Mdb_data_AO.ADC_T_data);
 185              		.loc 1 73 3 view .LVU28
 186 0042 6A89     		ldrh	r2, [r5, #10]
 187 0044 40F2ED31 		movw	r1, #1005
 188 0048 2046     		mov	r0, r4
 189 004a FFF7FEFF 		bl	ModbusSS_SetWord
 190              	.LVL15:
  74:App/ProtocolMbRtuSlaveCtrl.c **** 
 191              		.loc 1 74 3 view .LVU29
 192 004e AA89     		ldrh	r2, [r5, #12]
 193 0050 40F2EE31 		movw	r1, #1006
 194 0054 2046     		mov	r0, r4
 195 0056 FFF7FEFF 		bl	ModbusSS_SetWord
 196              	.LVL16:
  76:App/ProtocolMbRtuSlaveCtrl.c **** 
 197              		.loc 1 76 3 view .LVU30
 198 005a EA89     		ldrh	r2, [r5, #14]
 199 005c 40F2EF31 		movw	r1, #1007
 200 0060 2046     		mov	r0, r4
 201 0062 FFF7FEFF 		bl	ModbusSS_SetWord
 202              	.LVL17:
  78:App/ProtocolMbRtuSlaveCtrl.c ****   ModbusSS_SetWord(&mdb_table_bsp, tab_bsp_ADC_ADS1251_data_u32_2,   (uint16_t)(App.Mdb_data_AO.ADC
 203              		.loc 1 78 3 view .LVU31
 204 0066 2A8A     		ldrh	r2, [r5, #16]
 205 0068 4FF47C71 		mov	r1, #1008
 206 006c 2046     		mov	r0, r4
 207 006e FFF7FEFF 		bl	ModbusSS_SetWord
 208              	.LVL18:
  79:App/ProtocolMbRtuSlaveCtrl.c **** }
 209              		.loc 1 79 3 view .LVU32
 210 0072 0022     		movs	r2, #0
 211 0074 40F2F131 		movw	r1, #1009
 212 0078 2046     		mov	r0, r4
 213 007a FFF7FEFF 		bl	ModbusSS_SetWord
 214              	.LVL19:
  80:App/ProtocolMbRtuSlaveCtrl.c **** //------------------------ REGULAR FCN END------------------------
 215              		.loc 1 80 1 is_stmt 0 view .LVU33
 216 007e 38BD     		pop	{r3, r4, r5, pc}
 217              	.L18:
 218              		.align	2
 219              	.L17:
 220 0080 00000000 		.word	App
ARM GAS  C:\Users\sr1\AppData\Local\Temp\ccoo2xJ0.s 			page 7


 221 0084 00000000 		.word	mdb_table_bsp
 222              		.cfi_endproc
 223              	.LFE330:
 225              		.section	.text.protocolMbRtuSlaveCtrl_callback_H_READ,"ax",%progbits
 226              		.align	1
 227              		.weak	protocolMbRtuSlaveCtrl_callback_H_READ
 228              		.syntax unified
 229              		.thumb
 230              		.thumb_func
 232              	protocolMbRtuSlaveCtrl_callback_H_READ:
 233              	.LVL20:
 234              	.LFB332:
 105:App/ProtocolMbRtuSlaveCtrl.c **** 
 106:App/ProtocolMbRtuSlaveCtrl.c **** __weak void protocolMbRtuSlaveCtrl_callback_H_READ(ModbusSS_table_t *table, uint16_t reg, uint16_t 
 107:App/ProtocolMbRtuSlaveCtrl.c **** {
 235              		.loc 1 107 1 is_stmt 1 view -0
 236              		.cfi_startproc
 237              		@ args = 0, pretend = 0, frame = 0
 238              		@ frame_needed = 0, uses_anonymous_args = 0
 239              		@ link register save eliminated.
 108:App/ProtocolMbRtuSlaveCtrl.c **** 
 109:App/ProtocolMbRtuSlaveCtrl.c ****   asm("NOP");
 240              		.loc 1 109 3 view .LVU35
 241              		.syntax unified
 242              	@ 109 "App/ProtocolMbRtuSlaveCtrl.c" 1
 243 0000 00BF     		NOP
 244              	@ 0 "" 2
 110:App/ProtocolMbRtuSlaveCtrl.c ****   //             if (table == &modbusTableHolding1)
 111:App/ProtocolMbRtuSlaveCtrl.c ****   // {
 112:App/ProtocolMbRtuSlaveCtrl.c ****   //   for (int r = reg; r < reg + quantity; r++)
 113:App/ProtocolMbRtuSlaveCtrl.c ****   //   {
 114:App/ProtocolMbRtuSlaveCtrl.c ****   //     asm("NOP");
 115:App/ProtocolMbRtuSlaveCtrl.c ****   //     switch (r)
 116:App/ProtocolMbRtuSlaveCtrl.c ****   //     {
 117:App/ProtocolMbRtuSlaveCtrl.c ****   //     case MBP_AI1_X:
 118:App/ProtocolMbRtuSlaveCtrl.c ****   //       ModbusSS_SetWord(table, r, bsp_ai_read_cache(BSP_AI1));
 119:App/ProtocolMbRtuSlaveCtrl.c ****   //       asm("NOP");
 120:App/ProtocolMbRtuSlaveCtrl.c ****   //       break;
 121:App/ProtocolMbRtuSlaveCtrl.c ****   //     case MBP_AI2_Y:
 122:App/ProtocolMbRtuSlaveCtrl.c ****   //       ModbusSS_SetWord(table, r, bsp_ai_read_cache(BSP_AI2));
 123:App/ProtocolMbRtuSlaveCtrl.c ****   //       asm("NOP");
 124:App/ProtocolMbRtuSlaveCtrl.c ****   //       break;
 125:App/ProtocolMbRtuSlaveCtrl.c ****   //     case MBP_DI_STATE:
 126:App/ProtocolMbRtuSlaveCtrl.c ****   //       ModbusSS_SetWord(table, r, bsp_di_get_cache_pack16());
 127:App/ProtocolMbRtuSlaveCtrl.c ****   //       asm("NOP");
 128:App/ProtocolMbRtuSlaveCtrl.c ****   //       break;
 129:App/ProtocolMbRtuSlaveCtrl.c ****   //     default:
 130:App/ProtocolMbRtuSlaveCtrl.c ****   //       break;
 131:App/ProtocolMbRtuSlaveCtrl.c ****   //     }
 132:App/ProtocolMbRtuSlaveCtrl.c ****   //   }
 133:App/ProtocolMbRtuSlaveCtrl.c ****   // }
 134:App/ProtocolMbRtuSlaveCtrl.c **** }
 245              		.loc 1 134 1 is_stmt 0 view .LVU36
 246              		.thumb
 247              		.syntax unified
 248 0002 7047     		bx	lr
 249              		.cfi_endproc
ARM GAS  C:\Users\sr1\AppData\Local\Temp\ccoo2xJ0.s 			page 8


 250              	.LFE332:
 252              		.section	.text.bsp_rs485_callback_rxBlockReady,"ax",%progbits
 253              		.align	1
 254              		.global	bsp_rs485_callback_rxBlockReady
 255              		.syntax unified
 256              		.thumb
 257              		.thumb_func
 259              	bsp_rs485_callback_rxBlockReady:
 260              	.LVL21:
 261              	.LFB333:
 135:App/ProtocolMbRtuSlaveCtrl.c **** //------------------------------- MODBUS CALLBACKS END-------------------------------------------//
 136:App/ProtocolMbRtuSlaveCtrl.c **** 
 137:App/ProtocolMbRtuSlaveCtrl.c **** //------------------------------- HW CALLBACK -------------------------------------------//
 138:App/ProtocolMbRtuSlaveCtrl.c **** void bsp_rs485_callback_rxBlockReady(uint8_t portNo)
 139:App/ProtocolMbRtuSlaveCtrl.c **** {
 262              		.loc 1 139 1 is_stmt 1 view -0
 263              		.cfi_startproc
 264              		@ args = 0, pretend = 0, frame = 0
 265              		@ frame_needed = 0, uses_anonymous_args = 0
 266              		.loc 1 139 1 is_stmt 0 view .LVU38
 267 0000 10B5     		push	{r4, lr}
 268              	.LCFI3:
 269              		.cfi_def_cfa_offset 8
 270              		.cfi_offset 4, -8
 271              		.cfi_offset 14, -4
 272 0002 0446     		mov	r4, r0
 140:App/ProtocolMbRtuSlaveCtrl.c **** 
 141:App/ProtocolMbRtuSlaveCtrl.c ****   int32_t blockSizeByte = 0;
 273              		.loc 1 141 3 is_stmt 1 view .LVU39
 274              	.LVL22:
 142:App/ProtocolMbRtuSlaveCtrl.c ****   if ((blockSizeByte = ModbusSS_ParseRxData(&modbusSS_rtu_rs485)) == 0)
 275              		.loc 1 142 3 view .LVU40
 276              		.loc 1 142 24 is_stmt 0 view .LVU41
 277 0004 0848     		ldr	r0, .L24
 278              	.LVL23:
 279              		.loc 1 142 24 view .LVU42
 280 0006 FFF7FEFF 		bl	ModbusSS_ParseRxData
 281              	.LVL24:
 282              		.loc 1 142 6 view .LVU43
 283 000a 08B9     		cbnz	r0, .L21
 143:App/ProtocolMbRtuSlaveCtrl.c ****   {
 144:App/ProtocolMbRtuSlaveCtrl.c ****     // bug with reset modbus!!!
 145:App/ProtocolMbRtuSlaveCtrl.c ****     asm("NOP");
 284              		.loc 1 145 5 is_stmt 1 view .LVU44
 285              		.syntax unified
 286              	@ 145 "App/ProtocolMbRtuSlaveCtrl.c" 1
 287 000c 00BF     		NOP
 288              	@ 0 "" 2
 289              	.LVL25:
 290              		.thumb
 291              		.syntax unified
 292              	.L20:
 146:App/ProtocolMbRtuSlaveCtrl.c ****   }
 147:App/ProtocolMbRtuSlaveCtrl.c ****   else if (blockSizeByte != -1)
 148:App/ProtocolMbRtuSlaveCtrl.c ****   {
 149:App/ProtocolMbRtuSlaveCtrl.c ****     asm("NOP");
 150:App/ProtocolMbRtuSlaveCtrl.c ****     bsp_rs485_sendBlock(portNo, modbusSS_rtu_rs485.bufRxTx, blockSizeByte);
ARM GAS  C:\Users\sr1\AppData\Local\Temp\ccoo2xJ0.s 			page 9


 151:App/ProtocolMbRtuSlaveCtrl.c ****     asm("NOP");
 152:App/ProtocolMbRtuSlaveCtrl.c ****   }
 153:App/ProtocolMbRtuSlaveCtrl.c **** }
 293              		.loc 1 153 1 is_stmt 0 view .LVU45
 294 000e 10BD     		pop	{r4, pc}
 295              	.LVL26:
 296              	.L21:
 147:App/ProtocolMbRtuSlaveCtrl.c ****   {
 297              		.loc 1 147 8 is_stmt 1 view .LVU46
 147:App/ProtocolMbRtuSlaveCtrl.c ****   {
 298              		.loc 1 147 11 is_stmt 0 view .LVU47
 299 0010 B0F1FF3F 		cmp	r0, #-1
 300 0014 FBD0     		beq	.L20
 149:App/ProtocolMbRtuSlaveCtrl.c ****     bsp_rs485_sendBlock(portNo, modbusSS_rtu_rs485.bufRxTx, blockSizeByte);
 301              		.loc 1 149 5 is_stmt 1 view .LVU48
 302              		.syntax unified
 303              	@ 149 "App/ProtocolMbRtuSlaveCtrl.c" 1
 304 0016 00BF     		NOP
 305              	@ 0 "" 2
 150:App/ProtocolMbRtuSlaveCtrl.c ****     asm("NOP");
 306              		.loc 1 150 5 view .LVU49
 307              		.thumb
 308              		.syntax unified
 309 0018 C2B2     		uxtb	r2, r0
 310 001a 034B     		ldr	r3, .L24
 311 001c 1969     		ldr	r1, [r3, #16]
 312 001e 2046     		mov	r0, r4
 313              	.LVL27:
 150:App/ProtocolMbRtuSlaveCtrl.c ****     asm("NOP");
 314              		.loc 1 150 5 is_stmt 0 view .LVU50
 315 0020 FFF7FEFF 		bl	bsp_rs485_sendBlock
 316              	.LVL28:
 151:App/ProtocolMbRtuSlaveCtrl.c ****   }
 317              		.loc 1 151 5 is_stmt 1 view .LVU51
 318              		.syntax unified
 319              	@ 151 "App/ProtocolMbRtuSlaveCtrl.c" 1
 320 0024 00BF     		NOP
 321              	@ 0 "" 2
 322              		.loc 1 153 1 is_stmt 0 view .LVU52
 323              		.thumb
 324              		.syntax unified
 325 0026 F2E7     		b	.L20
 326              	.L25:
 327              		.align	2
 328              	.L24:
 329 0028 00000000 		.word	modbusSS_rtu_rs485
 330              		.cfi_endproc
 331              	.LFE333:
 333              		.global	modbusSS_rtu_rs485
 334              		.section	.data.modbusSS_rtu_rs485,"aw"
 335              		.align	2
 338              	modbusSS_rtu_rs485:
 339 0000 00000000 		.space	4
 340 0004 00000000 		.word	protocolMbRtuSlaveCtrl_callback_H_WRITE
 341 0008 00000000 		.word	0
 342 000c 00       		.byte	0
 343 000d 000000   		.space	3
ARM GAS  C:\Users\sr1\AppData\Local\Temp\ccoo2xJ0.s 			page 10


 344 0010 00000000 		.word	modbusBufRxTxRtu485
 345 0014 00000000 		.word	modbusTables
 346 0018 01       		.byte	1
 347 0019 01       		.byte	1
 348 001a 0000     		.space	2
 349              		.global	modbusTables
 350              		.section	.data.modbusTables,"aw"
 351              		.align	2
 354              	modbusTables:
 355 0000 00000000 		.word	mdb_table_bsp
 356              		.global	mdb_table_bsp
 357              		.section	.data.mdb_table_bsp,"aw"
 358              		.align	2
 361              	mdb_table_bsp:
 362 0000 E803     		.short	1000
 363 0002 0A00     		.short	10
 364 0004 00       		.byte	0
 365 0005 000000   		.space	3
 366 0008 00000000 		.word	mdb_bsp_buf
 367              		.global	mdb_bsp_buf
 368              		.section	.bss.mdb_bsp_buf,"aw",%nobits
 369              		.align	2
 372              	mdb_bsp_buf:
 373 0000 00000000 		.space	20
 373      00000000 
 373      00000000 
 373      00000000 
 373      00000000 
 374              		.global	modbusBufRxTxRtu485
 375              		.section	.bss.modbusBufRxTxRtu485,"aw",%nobits
 376              		.align	2
 379              	modbusBufRxTxRtu485:
 380 0000 00000000 		.space	260
 380      00000000 
 380      00000000 
 380      00000000 
 380      00000000 
 381              		.text
 382              	.Letext0:
 383              		.file 2 "c:\\program files\\vscodestmtools\\arm-none-eabi-gcc\\12.2.1-1.2.1\\.content\\arm-none-ea
 384              		.file 3 "c:\\program files\\vscodestmtools\\arm-none-eabi-gcc\\12.2.1-1.2.1\\.content\\arm-none-ea
 385              		.file 4 "BSP/ModbusSS.h"
 386              		.file 5 "App/App.h"
 387              		.file 6 "BSP/BSP.h"
 388              		.file 7 "Drivers/STM32G4xx_HAL_Driver/Inc/stm32g4xx_hal.h"
ARM GAS  C:\Users\sr1\AppData\Local\Temp\ccoo2xJ0.s 			page 11

